target datalayout = "e-m:e-p270:32:32-p271:32:32-p272:64:64-i64:64-i128:128-f80:128-n8:16:32:64-S128"
target triple = "x86_64-pc-linux-gnu"

%class.vector = type { ptr }
%"class.uint_set::iterator" = type { ptr, i32, i32 }

; Function Attrs: mustprogress nounwind uwtable
define linkonce_odr hidden noundef i32 @_ZNK6vectorIjLb0EjE4sizeEv(ptr noundef nonnull align 8 dereferenceable(8) %0) #8 comdat align 2 {
  %2 = alloca i32, align 4
  %3 = alloca ptr, align 8
  store ptr %0, ptr %3, align 8, !tbaa !25
  %4 = load ptr, ptr %3, align 8
  %5 = getelementptr inbounds nuw %class.vector, ptr %4, i32 0, i32 0
  %6 = load ptr, ptr %5, align 8, !tbaa !51
  %7 = icmp eq ptr %6, null
  br i1 %7, label %8, label %9

8:                                                ; preds = %1
  store i32 0, ptr %2, align 4
  br label %14

9:                                                ; preds = %1
  %10 = getelementptr inbounds nuw %class.vector, ptr %4, i32 0, i32 0
  %11 = load ptr, ptr %10, align 8, !tbaa !51
  %12 = getelementptr inbounds i32, ptr %11, i64 -1
  %13 = load i32, ptr %12, align 4, !tbaa !8
  store i32 %13, ptr %2, align 4
  br label %14

14:                                               ; preds = %9, %8
  %15 = load i32, ptr %2, align 4
  ret i32 %15
}

; Function Attrs: mustprogress nounwind uwtable
define linkonce_odr hidden noundef i32 @_ZNK8uint_set12get_max_elemEv(ptr noundef nonnull align 8 dereferenceable(8) %0) #8 comdat align 2 {
  %2 = alloca ptr, align 8
  store ptr %0, ptr %2, align 8, !tbaa !14
  %3 = load ptr, ptr %2, align 8
  %4 = call noundef i32 @_ZNK6vectorIjLb0EjE4sizeEv(ptr noundef nonnull align 8 dereferenceable(8) %3)
  %5 = mul i32 32, %4
  ret i32 %5
}

; Function Attrs: mustprogress uwtable
define linkonce_odr hidden void @_ZN8uint_set8iteratorC2ERKS_b(ptr noundef nonnull align 8 dereferenceable(16) %0, ptr noundef nonnull align 8 dereferenceable(8) %1, i1 noundef zeroext %2) unnamed_addr #4 comdat align 2 {
  %4 = alloca ptr, align 8
  %5 = alloca ptr, align 8
  %6 = alloca i8, align 1
  store ptr %0, ptr %4, align 8, !tbaa !31
  store ptr %1, ptr %5, align 8, !tbaa !14
  %7 = zext i1 %2 to i8
  store i8 %7, ptr %6, align 1, !tbaa !27
  %8 = load ptr, ptr %4, align 8
  %9 = getelementptr inbounds nuw %"class.uint_set::iterator", ptr %8, i32 0, i32 0
  %10 = load ptr, ptr %5, align 8, !tbaa !14
  store ptr %10, ptr %9, align 8, !tbaa !88
  %11 = getelementptr inbounds nuw %"class.uint_set::iterator", ptr %8, i32 0, i32 1
  %12 = load i8, ptr %6, align 1, !tbaa !27, !range !29, !noundef !30
  %13 = trunc i8 %12 to i1
  br i1 %13, label %14, label %17

14:                                               ; preds = %3
  %15 = load ptr, ptr %5, align 8, !tbaa !14
  %16 = call noundef i32 @_ZNK8uint_set12get_max_elemEv(ptr noundef nonnull align 8 dereferenceable(8) %15)
  br label %18

17:                                               ; preds = %3
  br label %18

18:                                               ; preds = %17, %14
  %19 = phi i32 [ %16, %14 ], [ 0, %17 ]
  store i32 %19, ptr %11, align 8, !tbaa !33
  %20 = getelementptr inbounds nuw %"class.uint_set::iterator", ptr %8, i32 0, i32 2
  %21 = load ptr, ptr %5, align 8, !tbaa !14
  %22 = call noundef i32 @_ZNK8uint_set12get_max_elemEv(ptr noundef nonnull align 8 dereferenceable(8) %21)
  store i32 %22, ptr %20, align 4, !tbaa !89
  call void @_ZN8uint_set8iterator4scanEv(ptr noundef nonnull align 8 dereferenceable(16) %8)
  ret void
}

; Function Attrs: mustprogress uwtable
define linkonce_odr hidden noundef nonnull align 8 dereferenceable(16) ptr @_ZN8uint_set8iteratorppEv(ptr noundef nonnull align 8 dereferenceable(16) %0) #4 comdat align 2 {
  %2 = alloca ptr, align 8
  store ptr %0, ptr %2, align 8, !tbaa !31
  %3 = load ptr, ptr %2, align 8
  %4 = getelementptr inbounds nuw %"class.uint_set::iterator", ptr %3, i32 0, i32 1
  %5 = load i32, ptr %4, align 8, !tbaa !33
  %6 = add i32 %5, 1
  store i32 %6, ptr %4, align 8, !tbaa !33
  call void @_ZN8uint_set8iterator4scanEv(ptr noundef nonnull align 8 dereferenceable(16) %3)
  ret ptr %3
}

; Function Attrs: mustprogress nounwind uwtable
define linkonce_odr hidden noundef i32 @_ZNK8uint_set8iteratordeEv(ptr noundef nonnull align 8 dereferenceable(16) %0) #8 comdat align 2 {
  %2 = alloca ptr, align 8
  store ptr %0, ptr %2, align 8, !tbaa !31
  %3 = load ptr, ptr %2, align 8
  %4 = getelementptr inbounds nuw %"class.uint_set::iterator", ptr %3, i32 0, i32 1
  %5 = load i32, ptr %4, align 8, !tbaa !33
  ret i32 %5
}

; Function Attrs: mustprogress nounwind uwtable
define linkonce_odr hidden noundef zeroext i1 @_ZNK8uint_set8iteratorneERKS0_(ptr noundef nonnull align 8 dereferenceable(16) %0, ptr noundef nonnull align 8 dereferenceable(16) %1) #8 comdat align 2 {
  %3 = alloca ptr, align 8
  %4 = alloca ptr, align 8
  store ptr %0, ptr %3, align 8, !tbaa !31
  store ptr %1, ptr %4, align 8, !tbaa !31
  %5 = load ptr, ptr %3, align 8
  %6 = getelementptr inbounds nuw %"class.uint_set::iterator", ptr %5, i32 0, i32 1
  %7 = load i32, ptr %6, align 8, !tbaa !33
  %8 = load ptr, ptr %4, align 8, !tbaa !31
  %9 = getelementptr inbounds nuw %"class.uint_set::iterator", ptr %8, i32 0, i32 1
  %10 = load i32, ptr %9, align 8, !tbaa !33
  %11 = icmp ne i32 %7, %10
  ret i1 %11
}

; Function Attrs: mustprogress uwtable
define linkonce_odr hidden { ptr, i64 } @_ZNK8uint_set3endEv(ptr noundef nonnull align 8 dereferenceable(8) %0) #4 comdat align 2 {
  %2 = alloca %"class.uint_set::iterator", align 8
  %3 = alloca ptr, align 8
  store ptr %0, ptr %3, align 8, !tbaa !14
  %4 = load ptr, ptr %3, align 8
  call void @_ZN8uint_set8iteratorC2ERKS_b(ptr noundef nonnull align 8 dereferenceable(16) %2, ptr noundef nonnull align 8 dereferenceable(8) %4, i1 noundef zeroext true)
  %5 = load { ptr, i64 }, ptr %2, align 8
  ret { ptr, i64 } %5
}

; Function Attrs: mustprogress uwtable
define linkonce_odr hidden { ptr, i64 } @_ZNK8uint_set5beginEv(ptr noundef nonnull align 8 dereferenceable(8) %0) #4 comdat align 2 {
  %2 = alloca %"class.uint_set::iterator", align 8
  %3 = alloca ptr, align 8
  store ptr %0, ptr %3, align 8, !tbaa !14
  %4 = load ptr, ptr %3, align 8
  call void @_ZN8uint_set8iteratorC2ERKS_b(ptr noundef nonnull align 8 dereferenceable(16) %2, ptr noundef nonnull align 8 dereferenceable(8) %4, i1 noundef zeroext false)
  %5 = load { ptr, i64 }, ptr %2, align 8
  ret { ptr, i64 } %5
}

; Function Attrs: mustprogress uwtable
define hidden noundef i32 @_ZN11state_graph12merge_statesER8uint_set(ptr noundef nonnull align 8 dereferenceable(152) %0, ptr noundef nonnull align 8 dereferenceable(8) %1) #4 align 2 {
  %3 = alloca ptr, align 8
  %4 = alloca ptr, align 8
  %5 = alloca i32, align 4
  %6 = alloca i8, align 1
  %7 = alloca ptr, align 8
  %8 = alloca %"class.uint_set::iterator", align 8
  %9 = alloca %"class.uint_set::iterator", align 8
  %10 = alloca i32, align 4
  %11 = alloca i32, align 4
  store ptr %0, ptr %3, align 8, !tbaa !3
  store ptr %1, ptr %4, align 8, !tbaa !14
  %12 = load ptr, ptr %3, align 8
  call void @llvm.lifetime.start.p0(i64 4, ptr %5) #3
  store i32 0, ptr %5, align 4, !tbaa !8
  call void @llvm.lifetime.start.p0(i64 1, ptr %6) #3
  store i8 1, ptr %6, align 1, !tbaa !27
  call void @llvm.lifetime.start.p0(i64 8, ptr %7) #3
  %13 = load ptr, ptr %4, align 8, !tbaa !14
  store ptr %13, ptr %7, align 8, !tbaa !14
  call void @llvm.lifetime.start.p0(i64 16, ptr %8) #3
  %14 = load ptr, ptr %7, align 8, !tbaa !14
  %15 = call { ptr, i64 } @_ZNK8uint_set5beginEv(ptr noundef nonnull align 8 dereferenceable(8) %14)
  %16 = getelementptr inbounds nuw { ptr, i64 }, ptr %8, i32 0, i32 0
  %17 = extractvalue { ptr, i64 } %15, 0
  store ptr %17, ptr %16, align 8
  %18 = getelementptr inbounds nuw { ptr, i64 }, ptr %8, i32 0, i32 1
  %19 = extractvalue { ptr, i64 } %15, 1
  store i64 %19, ptr %18, align 8
  call void @llvm.lifetime.start.p0(i64 16, ptr %9) #3
  %20 = load ptr, ptr %7, align 8, !tbaa !14
  %21 = call { ptr, i64 } @_ZNK8uint_set3endEv(ptr noundef nonnull align 8 dereferenceable(8) %20)
  %22 = getelementptr inbounds nuw { ptr, i64 }, ptr %9, i32 0, i32 0
  %23 = extractvalue { ptr, i64 } %21, 0
  store ptr %23, ptr %22, align 8
  %24 = getelementptr inbounds nuw { ptr, i64 }, ptr %9, i32 0, i32 1
  %25 = extractvalue { ptr, i64 } %21, 1
  store i64 %25, ptr %24, align 8
  br label %26

26:                                               ; preds = %42, %2
  %27 = call noundef zeroext i1 @_ZNK8uint_set8iteratorneERKS0_(ptr noundef nonnull align 8 dereferenceable(16) %8, ptr noundef nonnull align 8 dereferenceable(16) %9)
  br i1 %27, label %29, label %28

28:                                               ; preds = %26
  store i32 2, ptr %10, align 4
  call void @llvm.lifetime.end.p0(i64 16, ptr %9) #3
  call void @llvm.lifetime.end.p0(i64 16, ptr %8) #3
  call void @llvm.lifetime.end.p0(i64 8, ptr %7) #3
  br label %44

29:                                               ; preds = %26
  call void @llvm.lifetime.start.p0(i64 4, ptr %11) #3
  %30 = call noundef i32 @_ZNK8uint_set8iteratordeEv(ptr noundef nonnull align 8 dereferenceable(16) %8)
  store i32 %30, ptr %11, align 4, !tbaa !8
  %31 = load i8, ptr %6, align 1, !tbaa !27, !range !29, !noundef !30
  %32 = trunc i8 %31 to i1
  br i1 %32, label %33, label %35

33:                                               ; preds = %29
  %34 = load i32, ptr %11, align 4, !tbaa !8
  store i32 %34, ptr %5, align 4, !tbaa !8
  store i8 0, ptr %6, align 1, !tbaa !27
  store i32 3, ptr %10, align 4
  br label %39

35:                                               ; preds = %29
  %36 = load i32, ptr %5, align 4, !tbaa !8
  %37 = load i32, ptr %11, align 4, !tbaa !8
  %38 = call noundef i32 @_ZN11state_graph12merge_statesEjj(ptr noundef nonnull align 8 dereferenceable(152) %12, i32 noundef %36, i32 noundef %37)
  store i32 %38, ptr %5, align 4, !tbaa !8
  store i32 0, ptr %10, align 4
  br label %39

39:                                               ; preds = %35, %33
  call void @llvm.lifetime.end.p0(i64 4, ptr %11) #3
  %40 = load i32, ptr %10, align 4
  switch i32 %40, label %46 [
    i32 0, label %41
    i32 3, label %42
  ]

41:                                               ; preds = %39
  br label %42

42:                                               ; preds = %41, %39
  %43 = call noundef nonnull align 8 dereferenceable(16) ptr @_ZN8uint_set8iteratorppEv(ptr noundef nonnull align 8 dereferenceable(16) %8)
  br label %26

44:                                               ; preds = %28
  %45 = load i32, ptr %5, align 4, !tbaa !8
  store i32 1, ptr %10, align 4
  call void @llvm.lifetime.end.p0(i64 1, ptr %6) #3
  call void @llvm.lifetime.end.p0(i64 4, ptr %5) #3
  ret i32 %45

46:                                               ; preds = %39
  unreachable
}