; Function Attrs: mustprogress uwtable
define hidden noundef i32 @_ZN11state_graph12merge_statesER8uint_set(ptr noundef nonnull align 8 dereferenceable(152) %0, ptr noundef nonnull align 8 dereferenceable(8) %1) local_unnamed_addr #3 align 2 {
  %3 = alloca %"class.uint_set::iterator", align 8
  %4 = alloca %"class.uint_set::iterator", align 8
  %5 = alloca %"class.uint_set::iterator", align 8
  call void @llvm.lifetime.start.p0(i64 16, ptr nonnull %5) #20
  call void @llvm.lifetime.start.p0(i64 16, ptr nonnull %4)
  store ptr %1, ptr %4, align 8, !tbaa !29
  %.pr.pre.i.i = load ptr, ptr %1, align 8, !tbaa !3
  %6 = getelementptr inbounds nuw i8, ptr %4, i64 8
  store i32 0, ptr %6, align 8, !tbaa !32
  %7 = icmp eq ptr %.pr.pre.i.i, null
  br i1 %7, label %_ZNK8uint_set5beginEv.exit, label %8

8:                                                ; preds = %2
  %9 = getelementptr inbounds i8, ptr %.pr.pre.i.i, i64 -4
  %10 = load i32, ptr %9, align 4, !tbaa !9
  %11 = shl i32 %10, 5
  br label %_ZNK8uint_set5beginEv.exit

_ZNK8uint_set5beginEv.exit:                       ; preds = %2, %8
  %.0.i.i4.i.i = phi i32 [ %11, %8 ], [ 0, %2 ]
  %12 = getelementptr inbounds nuw i8, ptr %4, i64 12
  store i32 %.0.i.i4.i.i, ptr %12, align 4, !tbaa !33
  call void @_ZN8uint_set8iterator4scanEv(ptr noundef nonnull align 8 dereferenceable(16) %4)
  %.fca.0.load.i = load ptr, ptr %4, align 8
  %.fca.1.load.i = load i64, ptr %6, align 8
  call void @llvm.lifetime.end.p0(i64 16, ptr nonnull %4)
  store ptr %.fca.0.load.i, ptr %5, align 8
  %13 = getelementptr inbounds nuw i8, ptr %5, i64 8
  store i64 %.fca.1.load.i, ptr %13, align 8
  call void @llvm.lifetime.start.p0(i64 16, ptr nonnull %3)
  store ptr %1, ptr %3, align 8, !tbaa !29
  %.pr.pre.i.i10 = load ptr, ptr %1, align 8, !tbaa !3
  %14 = icmp eq ptr %.pr.pre.i.i10, null
  %15 = trunc i64 %.fca.1.load.i to i32
  br i1 %14, label %_ZNK8uint_set3endEv.exit, label %_ZNK8uint_set12get_max_elemEv.exit.thread6.i.i

_ZNK8uint_set12get_max_elemEv.exit.thread6.i.i:   ; preds = %_ZNK8uint_set5beginEv.exit
  %16 = getelementptr inbounds i8, ptr %.pr.pre.i.i10, i64 -4
  %17 = load i32, ptr %16, align 4, !tbaa !9
  %18 = shl i32 %17, 5
  br label %_ZNK8uint_set3endEv.exit

_ZNK8uint_set3endEv.exit:                         ; preds = %_ZNK8uint_set5beginEv.exit, %_ZNK8uint_set12get_max_elemEv.exit.thread6.i.i
  %.sink.i = phi i32 [ %18, %_ZNK8uint_set12get_max_elemEv.exit.thread6.i.i ], [ 0, %_ZNK8uint_set5beginEv.exit ]
  %19 = getelementptr inbounds nuw i8, ptr %3, i64 8
  store i32 %.sink.i, ptr %19, align 8, !tbaa !32
  %20 = getelementptr inbounds nuw i8, ptr %3, i64 12
  store i32 %.sink.i, ptr %20, align 4, !tbaa !33
  call void @_ZN8uint_set8iterator4scanEv(ptr noundef nonnull align 8 dereferenceable(16) %3)
  %.fca.1.load.i13 = load i64, ptr %19, align 8
  call void @llvm.lifetime.end.p0(i64 16, ptr nonnull %3)
  %.sroa.3.8.extract.trunc = trunc i64 %.fca.1.load.i13 to i32
  %.not15 = icmp eq i32 %15, %.sroa.3.8.extract.trunc
  br i1 %.not15, label %._crit_edge, label %.lr.ph

._crit_edge:                                      ; preds = %24, %_ZNK8uint_set3endEv.exit
  %.0.lcssa = phi i32 [ 0, %_ZNK8uint_set3endEv.exit ], [ %.1, %24 ]
  call void @llvm.lifetime.end.p0(i64 16, ptr nonnull %5) #20
  ret i32 %.0.lcssa

.lr.ph:                                           ; preds = %_ZNK8uint_set3endEv.exit, %24
  %21 = phi i32 [ %27, %24 ], [ %15, %_ZNK8uint_set3endEv.exit ]
  %.017 = phi i32 [ %.1, %24 ], [ 0, %_ZNK8uint_set3endEv.exit ]
  %.0816 = phi i1 [ false, %24 ], [ true, %_ZNK8uint_set3endEv.exit ]
  br i1 %.0816, label %24, label %22

22:                                               ; preds = %.lr.ph
  %23 = call noundef i32 @_ZN11state_graph12merge_statesEjj(ptr noundef nonnull align 8 dereferenceable(152) %0, i32 noundef %.017, i32 noundef %21)
  %.pre = load i32, ptr %13, align 8, !tbaa !32
  br label %24

24:                                               ; preds = %.lr.ph, %22
  %25 = phi i32 [ %.pre, %22 ], [ %21, %.lr.ph ]
  %.1 = phi i32 [ %23, %22 ], [ %21, %.lr.ph ]
  %26 = add i32 %25, 1
  store i32 %26, ptr %13, align 8, !tbaa !32
  call void @_ZN8uint_set8iterator4scanEv(ptr noundef nonnull align 8 dereferenceable(16) %5)
  %27 = load i32, ptr %13, align 8, !tbaa !32
  %.not = icmp eq i32 %27, %.sroa.3.8.extract.trunc
  br i1 %.not, label %._crit_edge, label %.lr.ph
}